target datalayout = "e-m:e-p270:32:32-p271:32:32-p272:64:64-i64:64-i128:128-f80:128-n8:16:32:64-S128"
target triple = "x86_64-pc-linux-gnu"

%struct.LZ4_streamDecode_t_internal = type { ptr, ptr, i64, i64 }

; Function Attrs: mustprogress nounwind uwtable
define i32 @LZ4_setStreamDecode(ptr noundef %0, ptr noundef %1, i32 noundef %2) #0 {
  %4 = alloca ptr, align 8
  %5 = alloca ptr, align 8
  %6 = alloca i32, align 4
  %7 = alloca ptr, align 8
  store ptr %0, ptr %4, align 8, !tbaa !54
  store ptr %1, ptr %5, align 8, !tbaa !12
  store i32 %2, ptr %6, align 4, !tbaa !6
  call void @llvm.lifetime.start.p0(i64 8, ptr %7) #12
  %8 = load ptr, ptr %4, align 8, !tbaa !54
  store ptr %8, ptr %7, align 8, !tbaa !10
  %9 = load i32, ptr %6, align 4, !tbaa !6
  %10 = sext i32 %9 to i64
  %11 = load ptr, ptr %7, align 8, !tbaa !10
  %12 = getelementptr inbounds nuw %struct.LZ4_streamDecode_t_internal, ptr %11, i32 0, i32 3
  store i64 %10, ptr %12, align 8, !tbaa !56
  %13 = load i32, ptr %6, align 4, !tbaa !6
  %14 = icmp ne i32 %13, 0
  br i1 %14, label %15, label %22

15:                                               ; preds = %3
  %16 = load ptr, ptr %5, align 8, !tbaa !12
  %17 = load i32, ptr %6, align 4, !tbaa !6
  %18 = sext i32 %17 to i64
  %19 = getelementptr inbounds i8, ptr %16, i64 %18
  %20 = load ptr, ptr %7, align 8, !tbaa !10
  %21 = getelementptr inbounds nuw %struct.LZ4_streamDecode_t_internal, ptr %20, i32 0, i32 1
  store ptr %19, ptr %21, align 8, !tbaa !58
  br label %26

22:                                               ; preds = %3
  %23 = load ptr, ptr %5, align 8, !tbaa !12
  %24 = load ptr, ptr %7, align 8, !tbaa !10
  %25 = getelementptr inbounds nuw %struct.LZ4_streamDecode_t_internal, ptr %24, i32 0, i32 1
  store ptr %23, ptr %25, align 8, !tbaa !58
  br label %26

26:                                               ; preds = %22, %15
  %27 = load ptr, ptr %7, align 8, !tbaa !10
  %28 = getelementptr inbounds nuw %struct.LZ4_streamDecode_t_internal, ptr %27, i32 0, i32 0
  store ptr null, ptr %28, align 8, !tbaa !59
  %29 = load ptr, ptr %7, align 8, !tbaa !10
  %30 = getelementptr inbounds nuw %struct.LZ4_streamDecode_t_internal, ptr %29, i32 0, i32 2
  store i64 0, ptr %30, align 8, !tbaa !60
  call void @llvm.lifetime.end.p0(i64 8, ptr %7) #12
  ret i32 1
}